; ModuleID = '54/369.c'
source_filename = "54/369.c"
target datalayout = "e-m:e-p270:32:32-p271:32:32-p272:64:64-i64:64-f80:128-n8:16:32:64-S128"
target triple = "x86_64-pc-linux-gnu"

@.str = private unnamed_addr constant [6 x i8] c"%d %d\00", align 1
@.str.1 = private unnamed_addr constant [4 x i8] c"%d\0A\00", align 1

; Function Attrs: noinline nounwind uwtable
define dso_local i32 @main() #0 {
  %1 = alloca i32, align 4
  %2 = alloca i32, align 4
  %3 = alloca i32, align 4
  %4 = alloca i32, align 4
  store i32 0, i32* %1, align 4
  %5 = call i32 (i8*, ...) @__isoc99_scanf(i8* getelementptr inbounds ([6 x i8], [6 x i8]* @.str, i64 0, i64 0), i32* %2, i32* %4)
  %6 = load i32, i32* %2, align 4
  %7 = icmp sgt i32 %6, 2
  br i1 %7, label %8, label %20

8:                                                ; preds = %0
  %9 = load i32, i32* %2, align 4
  %10 = sitofp i32 %9 to double
  %11 = load i32, i32* %2, align 4
  %12 = sitofp i32 %11 to double
  %13 = call double @pow(double %10, double %12) #3
  %14 = fptosi double %13 to i32
  %15 = load i32, i32* %2, align 4
  %16 = sub nsw i32 %15, 1
  %17 = load i32, i32* %4, align 4
  %18 = mul nsw i32 %16, %17
  %19 = sub nsw i32 %14, %18
  store i32 %19, i32* %3, align 4
  br label %21

20:                                               ; preds = %0
  store i32 7, i32* %3, align 4
  br label %21

21:                                               ; preds = %20, %8
  %22 = load i32, i32* %3, align 4
  %23 = call i32 (i8*, ...) @printf(i8* getelementptr inbounds ([4 x i8], [4 x i8]* @.str.1, i64 0, i64 0), i32 %22)
  ret i32 0
}

declare dso_local i32 @__isoc99_scanf(i8*, ...) #1

; Function Attrs: nounwind
declare dso_local double @pow(double, double) #2

declare dso_local i32 @printf(i8*, ...) #1


!llvm.module.flags = !{!0}
!llvm.ident = !{!1}

!0 = !{i32 1, !"wchar_size", i32 4}
!1 = !{!"clang version 10.0.0-4ubuntu1 "}
